; Function Attrs: mustprogress nofree nosync nounwind willreturn memory(readwrite, argmem: write, inaccessiblemem: none) uwtable
define dso_local range(i32 -1, 1) i32 @pg_fsync_writethrough(i32 noundef %0) local_unnamed_addr #4 {
  %2 = load i8, ptr @enableFsync, align 1, !range !4, !noundef !5
  %3 = trunc nuw i8 %2 to i1
  br i1 %3, label %4, label %6

4:                                                ; preds = %1
  %5 = tail call ptr @__errno_location() #26
  store i32 38, ptr %5, align 4
  br label %6

6:                                                ; preds = %1, %4
  %.0 = phi i32 [ -1, %4 ], [ 0, %1 ]
  ret i32 %.0
}